target datalayout = "e-m:e-p270:32:32-p271:32:32-p272:64:64-i64:64-i128:128-f80:128-n8:16:32:64-S128"
target triple = "x86_64-pc-linux-gnu"

%struct.txt_db_st = type { i32, ptr, ptr, ptr, i64, i64, i64, ptr }

@.str = private unnamed_addr constant [34 x i8] c"../openssl/crypto/txt_db/txt_db.c\00", align 1

; Function Attrs: inlinehint nounwind uwtable
define internal void @sk_OPENSSL_PSTRING_free(ptr noundef %0) #3 {
  %2 = alloca ptr, align 8
  store ptr %0, ptr %2, align 8, !tbaa !35
  %3 = load ptr, ptr %2, align 8, !tbaa !35
  call void @OPENSSL_sk_free(ptr noundef %3)
  ret void
}

; Function Attrs: inlinehint nounwind uwtable
define internal ptr @sk_OPENSSL_PSTRING_value(ptr noundef %0, i32 noundef %1) #3 {
  %3 = alloca ptr, align 8
  %4 = alloca i32, align 4
  store ptr %0, ptr %3, align 8, !tbaa !35
  store i32 %1, ptr %4, align 4, !tbaa !8
  %5 = load ptr, ptr %3, align 8, !tbaa !35
  %6 = load i32, ptr %4, align 4, !tbaa !8
  %7 = call ptr @OPENSSL_sk_value(ptr noundef %5, i32 noundef %6)
  ret ptr %7
}

; Function Attrs: inlinehint nounwind uwtable
define internal i32 @sk_OPENSSL_PSTRING_num(ptr noundef %0) #3 {
  %2 = alloca ptr, align 8
  store ptr %0, ptr %2, align 8, !tbaa !35
  %3 = load ptr, ptr %2, align 8, !tbaa !35
  %4 = call i32 @OPENSSL_sk_num(ptr noundef %3)
  ret i32 %4
}

; Function Attrs: inlinehint nounwind uwtable
define internal ptr @ossl_check_OPENSSL_STRING_lh_type(ptr noundef %0) #3 {
  %2 = alloca ptr, align 8
  store ptr %0, ptr %2, align 8, !tbaa !23
  %3 = load ptr, ptr %2, align 8, !tbaa !23
  ret ptr %3
}

; Function Attrs: nounwind uwtable
define void @TXT_DB_free(ptr noundef %0) #0 {
  %2 = alloca ptr, align 8
  %3 = alloca i32, align 4
  %4 = alloca i32, align 4
  %5 = alloca ptr, align 8
  %6 = alloca ptr, align 8
  %7 = alloca i32, align 4
  store ptr %0, ptr %2, align 8, !tbaa !10
  call void @llvm.lifetime.start.p0(i64 4, ptr %3) #5
  call void @llvm.lifetime.start.p0(i64 4, ptr %4) #5
  call void @llvm.lifetime.start.p0(i64 8, ptr %5) #5
  call void @llvm.lifetime.start.p0(i64 8, ptr %6) #5
  %8 = load ptr, ptr %2, align 8, !tbaa !10
  %9 = icmp eq ptr %8, null
  br i1 %9, label %10, label %11

10:                                               ; preds = %1
  store i32 1, ptr %7, align 4
  br label %138

11:                                               ; preds = %1
  %12 = load ptr, ptr %2, align 8, !tbaa !10
  %13 = getelementptr inbounds nuw %struct.txt_db_st, ptr %12, i32 0, i32 2
  %14 = load ptr, ptr %13, align 8, !tbaa !20
  %15 = icmp ne ptr %14, null
  br i1 %15, label %16, label %40

16:                                               ; preds = %11
  %17 = load ptr, ptr %2, align 8, !tbaa !10
  %18 = getelementptr inbounds nuw %struct.txt_db_st, ptr %17, i32 0, i32 0
  %19 = load i32, ptr %18, align 8, !tbaa !14
  %20 = sub nsw i32 %19, 1
  store i32 %20, ptr %3, align 4, !tbaa !8
  br label %21

21:                                               ; preds = %33, %16
  %22 = load i32, ptr %3, align 4, !tbaa !8
  %23 = icmp sge i32 %22, 0
  br i1 %23, label %24, label %36

24:                                               ; preds = %21
  %25 = load ptr, ptr %2, align 8, !tbaa !10
  %26 = getelementptr inbounds nuw %struct.txt_db_st, ptr %25, i32 0, i32 2
  %27 = load ptr, ptr %26, align 8, !tbaa !20
  %28 = load i32, ptr %3, align 4, !tbaa !8
  %29 = sext i32 %28 to i64
  %30 = getelementptr inbounds ptr, ptr %27, i64 %29
  %31 = load ptr, ptr %30, align 8, !tbaa !23
  %32 = call ptr @ossl_check_OPENSSL_STRING_lh_type(ptr noundef %31)
  call void @OPENSSL_LH_free(ptr noundef %32)
  br label %33

33:                                               ; preds = %24
  %34 = load i32, ptr %3, align 4, !tbaa !8
  %35 = add nsw i32 %34, -1
  store i32 %35, ptr %3, align 4, !tbaa !8
  br label %21, !llvm.loop !47

36:                                               ; preds = %21
  %37 = load ptr, ptr %2, align 8, !tbaa !10
  %38 = getelementptr inbounds nuw %struct.txt_db_st, ptr %37, i32 0, i32 2
  %39 = load ptr, ptr %38, align 8, !tbaa !20
  call void @CRYPTO_free(ptr noundef %39, ptr noundef @.str, i32 noundef 289)
  br label %40

40:                                               ; preds = %36, %11
  %41 = load ptr, ptr %2, align 8, !tbaa !10
  %42 = getelementptr inbounds nuw %struct.txt_db_st, ptr %41, i32 0, i32 3
  %43 = load ptr, ptr %42, align 8, !tbaa !21
  call void @CRYPTO_free(ptr noundef %43, ptr noundef @.str, i32 noundef 291)
  %44 = load ptr, ptr %2, align 8, !tbaa !10
  %45 = getelementptr inbounds nuw %struct.txt_db_st, ptr %44, i32 0, i32 1
  %46 = load ptr, ptr %45, align 8, !tbaa !22
  %47 = icmp ne ptr %46, null
  br i1 %47, label %48, label %136

48:                                               ; preds = %40
  %49 = load ptr, ptr %2, align 8, !tbaa !10
  %50 = getelementptr inbounds nuw %struct.txt_db_st, ptr %49, i32 0, i32 1
  %51 = load ptr, ptr %50, align 8, !tbaa !22
  %52 = call i32 @sk_OPENSSL_PSTRING_num(ptr noundef %51)
  %53 = sub nsw i32 %52, 1
  store i32 %53, ptr %3, align 4, !tbaa !8
  br label %54

54:                                               ; preds = %129, %48
  %55 = load i32, ptr %3, align 4, !tbaa !8
  %56 = icmp sge i32 %55, 0
  br i1 %56, label %57, label %132

57:                                               ; preds = %54
  %58 = load ptr, ptr %2, align 8, !tbaa !10
  %59 = getelementptr inbounds nuw %struct.txt_db_st, ptr %58, i32 0, i32 1
  %60 = load ptr, ptr %59, align 8, !tbaa !22
  %61 = load i32, ptr %3, align 4, !tbaa !8
  %62 = call ptr @sk_OPENSSL_PSTRING_value(ptr noundef %60, i32 noundef %61)
  store ptr %62, ptr %5, align 8, !tbaa !33
  %63 = load ptr, ptr %5, align 8, !tbaa !33
  %64 = load ptr, ptr %2, align 8, !tbaa !10
  %65 = getelementptr inbounds nuw %struct.txt_db_st, ptr %64, i32 0, i32 0
  %66 = load i32, ptr %65, align 8, !tbaa !14
  %67 = sext i32 %66 to i64
  %68 = getelementptr inbounds ptr, ptr %63, i64 %67
  %69 = load ptr, ptr %68, align 8, !tbaa !32
  store ptr %69, ptr %6, align 8, !tbaa !32
  %70 = load ptr, ptr %6, align 8, !tbaa !32
  %71 = icmp eq ptr %70, null
  br i1 %71, label %72, label %89

72:                                               ; preds = %57
  store i32 0, ptr %4, align 4, !tbaa !8
  br label %73

73:                                               ; preds = %85, %72
  %74 = load i32, ptr %4, align 4, !tbaa !8
  %75 = load ptr, ptr %2, align 8, !tbaa !10
  %76 = getelementptr inbounds nuw %struct.txt_db_st, ptr %75, i32 0, i32 0
  %77 = load i32, ptr %76, align 8, !tbaa !14
  %78 = icmp slt i32 %74, %77
  br i1 %78, label %79, label %88

79:                                               ; preds = %73
  %80 = load ptr, ptr %5, align 8, !tbaa !33
  %81 = load i32, ptr %4, align 4, !tbaa !8
  %82 = sext i32 %81 to i64
  %83 = getelementptr inbounds ptr, ptr %80, i64 %82
  %84 = load ptr, ptr %83, align 8, !tbaa !32
  call void @CRYPTO_free(ptr noundef %84, ptr noundef @.str, i32 noundef 302)
  br label %85

85:                                               ; preds = %79
  %86 = load i32, ptr %4, align 4, !tbaa !8
  %87 = add nsw i32 %86, 1
  store i32 %87, ptr %4, align 4, !tbaa !8
  br label %73, !llvm.loop !48

88:                                               ; preds = %73
  br label %123

89:                                               ; preds = %57
  store i32 0, ptr %4, align 4, !tbaa !8
  br label %90

90:                                               ; preds = %119, %89
  %91 = load i32, ptr %4, align 4, !tbaa !8
  %92 = load ptr, ptr %2, align 8, !tbaa !10
  %93 = getelementptr inbounds nuw %struct.txt_db_st, ptr %92, i32 0, i32 0
  %94 = load i32, ptr %93, align 8, !tbaa !14
  %95 = icmp slt i32 %91, %94
  br i1 %95, label %96, label %122

96:                                               ; preds = %90
  %97 = load ptr, ptr %5, align 8, !tbaa !33
  %98 = load i32, ptr %4, align 4, !tbaa !8
  %99 = sext i32 %98 to i64
  %100 = getelementptr inbounds ptr, ptr %97, i64 %99
  %101 = load ptr, ptr %100, align 8, !tbaa !32
  %102 = load ptr, ptr %5, align 8, !tbaa !33
  %103 = icmp ult ptr %101, %102
  br i1 %103, label %112, label %104

104:                                              ; preds = %96
  %105 = load ptr, ptr %5, align 8, !tbaa !33
  %106 = load i32, ptr %4, align 4, !tbaa !8
  %107 = sext i32 %106 to i64
  %108 = getelementptr inbounds ptr, ptr %105, i64 %107
  %109 = load ptr, ptr %108, align 8, !tbaa !32
  %110 = load ptr, ptr %6, align 8, !tbaa !32
  %111 = icmp ugt ptr %109, %110
  br i1 %111, label %112, label %118

112:                                              ; preds = %104, %96
  %113 = load ptr, ptr %5, align 8, !tbaa !33
  %114 = load i32, ptr %4, align 4, !tbaa !8
  %115 = sext i32 %114 to i64
  %116 = getelementptr inbounds ptr, ptr %113, i64 %115
  %117 = load ptr, ptr %116, align 8, !tbaa !32
  call void @CRYPTO_free(ptr noundef %117, ptr noundef @.str, i32 noundef 306)
  br label %118

118:                                              ; preds = %112, %104
  br label %119

119:                                              ; preds = %118
  %120 = load i32, ptr %4, align 4, !tbaa !8
  %121 = add nsw i32 %120, 1
  store i32 %121, ptr %4, align 4, !tbaa !8
  br label %90, !llvm.loop !49

122:                                              ; preds = %90
  br label %123

123:                                              ; preds = %122, %88
  %124 = load ptr, ptr %2, align 8, !tbaa !10
  %125 = getelementptr inbounds nuw %struct.txt_db_st, ptr %124, i32 0, i32 1
  %126 = load ptr, ptr %125, align 8, !tbaa !22
  %127 = load i32, ptr %3, align 4, !tbaa !8
  %128 = call ptr @sk_OPENSSL_PSTRING_value(ptr noundef %126, i32 noundef %127)
  call void @CRYPTO_free(ptr noundef %128, ptr noundef @.str, i32 noundef 309)
  br label %129

129:                                              ; preds = %123
  %130 = load i32, ptr %3, align 4, !tbaa !8
  %131 = add nsw i32 %130, -1
  store i32 %131, ptr %3, align 4, !tbaa !8
  br label %54, !llvm.loop !50

132:                                              ; preds = %54
  %133 = load ptr, ptr %2, align 8, !tbaa !10
  %134 = getelementptr inbounds nuw %struct.txt_db_st, ptr %133, i32 0, i32 1
  %135 = load ptr, ptr %134, align 8, !tbaa !22
  call void @sk_OPENSSL_PSTRING_free(ptr noundef %135)
  br label %136

136:                                              ; preds = %132, %40
  %137 = load ptr, ptr %2, align 8, !tbaa !10
  call void @CRYPTO_free(ptr noundef %137, ptr noundef @.str, i32 noundef 313)
  store i32 0, ptr %7, align 4
  br label %138

138:                                              ; preds = %136, %10
  call void @llvm.lifetime.end.p0(i64 8, ptr %6) #5
  call void @llvm.lifetime.end.p0(i64 8, ptr %5) #5
  call void @llvm.lifetime.end.p0(i64 4, ptr %4) #5
  call void @llvm.lifetime.end.p0(i64 4, ptr %3) #5
  %139 = load i32, ptr %7, align 4
  switch i32 %139, label %141 [
    i32 0, label %140
    i32 1, label %140
  ]

140:                                              ; preds = %138, %138
  ret void

141:                                              ; preds = %138
  unreachable
}