; Function Attrs: nounwind uwtable
define void @TXT_DB_free(ptr noundef %0) local_unnamed_addr #0 {
  %2 = icmp eq ptr %0, null
  br i1 %2, label %51, label %3

3:                                                ; preds = %1
  %4 = getelementptr inbounds nuw i8, ptr %0, i64 16
  %5 = load ptr, ptr %4, align 8, !tbaa !14
  %.not = icmp eq ptr %5, null
  br i1 %.not, label %15, label %6

6:                                                ; preds = %3
  %7 = load i32, ptr %0, align 8, !tbaa !3
  %8 = icmp sgt i32 %7, 0
  br i1 %8, label %.lr.ph.preheader, label %._crit_edge

.lr.ph.preheader:                                 ; preds = %6
  %9 = zext nneg i32 %7 to i64
  br label %.lr.ph

.lr.ph:                                           ; preds = %.lr.ph.preheader, %.lr.ph
  %indvars.iv = phi i64 [ %9, %.lr.ph.preheader ], [ %indvars.iv.next, %.lr.ph ]
  %indvars.iv.next = add nsw i64 %indvars.iv, -1
  %10 = load ptr, ptr %4, align 8, !tbaa !14
  %11 = getelementptr inbounds nuw ptr, ptr %10, i64 %indvars.iv.next
  %12 = load ptr, ptr %11, align 8, !tbaa !16
  tail call void @OPENSSL_LH_free(ptr noundef %12) #5
  %13 = icmp samesign ugt i64 %indvars.iv, 1
  br i1 %13, label %.lr.ph, label %._crit_edge.loopexit, !llvm.loop !37

._crit_edge.loopexit:                             ; preds = %.lr.ph
  %.pre = load ptr, ptr %4, align 8, !tbaa !14
  br label %._crit_edge

._crit_edge:                                      ; preds = %._crit_edge.loopexit, %6
  %14 = phi ptr [ %.pre, %._crit_edge.loopexit ], [ %5, %6 ]
  tail call void @CRYPTO_free(ptr noundef %14, ptr noundef nonnull @.str, i32 noundef 289) #5
  br label %15

15:                                               ; preds = %._crit_edge, %3
  %16 = getelementptr inbounds nuw i8, ptr %0, i64 24
  %17 = load ptr, ptr %16, align 8, !tbaa !15
  tail call void @CRYPTO_free(ptr noundef %17, ptr noundef nonnull @.str, i32 noundef 291) #5
  %18 = getelementptr inbounds nuw i8, ptr %0, i64 8
  %19 = load ptr, ptr %18, align 8, !tbaa !13
  %.not43 = icmp eq ptr %19, null
  br i1 %.not43, label %50, label %20

20:                                               ; preds = %15
  %21 = tail call i32 @OPENSSL_sk_num(ptr noundef nonnull %19) #5
  %22 = icmp sgt i32 %21, 0
  br i1 %22, label %.lr.ph54, label %._crit_edge55

.lr.ph54:                                         ; preds = %20, %.loopexit
  %.152.in = phi i32 [ %.152, %.loopexit ], [ %21, %20 ]
  %.152 = add nsw i32 %.152.in, -1
  %23 = load ptr, ptr %18, align 8, !tbaa !13
  %24 = tail call ptr @OPENSSL_sk_value(ptr noundef %23, i32 noundef %.152) #5
  %25 = load i32, ptr %0, align 8, !tbaa !3
  %26 = sext i32 %25 to i64
  %27 = getelementptr inbounds ptr, ptr %24, i64 %26
  %28 = load ptr, ptr %27, align 8, !tbaa !25
  %29 = icmp eq ptr %28, null
  %30 = icmp sgt i32 %25, 0
  br i1 %29, label %.preheader, label %.preheader44

.preheader44:                                     ; preds = %.lr.ph54
  br i1 %30, label %.lr.ph48, label %.loopexit

.preheader:                                       ; preds = %.lr.ph54
  br i1 %30, label %.lr.ph50, label %.loopexit

.lr.ph50:                                         ; preds = %.preheader, %.lr.ph50
  %indvars.iv61 = phi i64 [ %indvars.iv.next62, %.lr.ph50 ], [ 0, %.preheader ]
  %31 = getelementptr inbounds nuw ptr, ptr %24, i64 %indvars.iv61
  %32 = load ptr, ptr %31, align 8, !tbaa !25
  tail call void @CRYPTO_free(ptr noundef %32, ptr noundef nonnull @.str, i32 noundef 302) #5
  %indvars.iv.next62 = add nuw nsw i64 %indvars.iv61, 1
  %33 = load i32, ptr %0, align 8, !tbaa !3
  %34 = sext i32 %33 to i64
  %35 = icmp slt i64 %indvars.iv.next62, %34
  br i1 %35, label %.lr.ph50, label %.loopexit, !llvm.loop !38

.lr.ph48:                                         ; preds = %.preheader44, %42
  %36 = phi i32 [ %43, %42 ], [ %25, %.preheader44 ]
  %indvars.iv58 = phi i64 [ %indvars.iv.next59, %42 ], [ 0, %.preheader44 ]
  %37 = getelementptr inbounds nuw ptr, ptr %24, i64 %indvars.iv58
  %38 = load ptr, ptr %37, align 8, !tbaa !25
  %39 = icmp ult ptr %38, %24
  %40 = icmp ugt ptr %38, %28
  %or.cond = or i1 %39, %40
  br i1 %or.cond, label %41, label %42

41:                                               ; preds = %.lr.ph48
  tail call void @CRYPTO_free(ptr noundef %38, ptr noundef nonnull @.str, i32 noundef 306) #5
  %.pre64 = load i32, ptr %0, align 8, !tbaa !3
  br label %42

42:                                               ; preds = %.lr.ph48, %41
  %43 = phi i32 [ %36, %.lr.ph48 ], [ %.pre64, %41 ]
  %indvars.iv.next59 = add nuw nsw i64 %indvars.iv58, 1
  %44 = sext i32 %43 to i64
  %45 = icmp slt i64 %indvars.iv.next59, %44
  br i1 %45, label %.lr.ph48, label %.loopexit, !llvm.loop !39

.loopexit:                                        ; preds = %42, %.lr.ph50, %.preheader44, %.preheader
  %46 = load ptr, ptr %18, align 8, !tbaa !13
  %47 = tail call ptr @OPENSSL_sk_value(ptr noundef %46, i32 noundef %.152) #5
  tail call void @CRYPTO_free(ptr noundef %47, ptr noundef nonnull @.str, i32 noundef 309) #5
  %48 = icmp sgt i32 %.152.in, 1
  br i1 %48, label %.lr.ph54, label %._crit_edge55, !llvm.loop !40

._crit_edge55:                                    ; preds = %.loopexit, %20
  %49 = load ptr, ptr %18, align 8, !tbaa !13
  tail call void @OPENSSL_sk_free(ptr noundef %49) #5
  br label %50

50:                                               ; preds = %._crit_edge55, %15
  tail call void @CRYPTO_free(ptr noundef nonnull %0, ptr noundef nonnull @.str, i32 noundef 313) #5
  br label %51

51:                                               ; preds = %1, %50
  ret void
}